target datalayout = "e-m:e-p270:32:32-p271:32:32-p272:64:64-i64:64-i128:128-f80:128-n8:16:32:64-S128"
target triple = "x86_64-pc-linux-gnu"

%struct.ident_t = type { i32, i32, i32, i32, ptr }
%"struct.faiss::Index" = type <{ ptr, i32, [4 x i8], i64, i8, i8, [2 x i8], i32, float, [4 x i8] }>
%"class.std::__cxx11::basic_string" = type { %"struct.std::__cxx11::basic_string<char>::_Alloc_hider", i64, %union.anon }
%"struct.std::__cxx11::basic_string<char>::_Alloc_hider" = type { ptr }
%union.anon = type { i64, [8 x i8] }
%"struct.faiss::SearchParameters" = type { ptr, ptr }

@.str = private unnamed_addr constant [19 x i8] c"Error: '%s' failed\00", align 1
@.str.1 = private unnamed_addr constant [6 x i8] c"k > 0\00", align 1
@__PRETTY_FUNCTION__._ZNK5faiss20IndexScalarQuantizer6searchElPKflPfPlPKNS_16SearchParametersE = private unnamed_addr constant [128 x i8] c"virtual void faiss::IndexScalarQuantizer::search(idx_t, const float *, idx_t, float *, idx_t *, const SearchParameters *) const\00", align 1
@.str.2 = private unnamed_addr constant [120 x i8] c"generated/home/dtcxzyw/WorkSpace/Projects/compilers/llvm-opt-benchmark/bench/faiss/faiss/faiss/IndexScalarQuantizer.cpp\00", align 1
@_ZTIN5faiss14FaissExceptionE = external constant ptr
@.str.3 = private unnamed_addr constant [11 x i8] c"is_trained\00", align 1
@.str.4 = private unnamed_addr constant [64 x i8] c"metric_type == METRIC_L2 || metric_type == METRIC_INNER_PRODUCT\00", align 1
@3 = private unnamed_addr constant %struct.ident_t { i32 0, i32 2, i32 0, i32 22, ptr @0 }, align 8

; Function Attrs: mustprogress uwtable
define void @_ZNK5faiss20IndexScalarQuantizer6searchElPKflPfPlPKNS_16SearchParametersE(ptr noundef nonnull align 8 dereferenceable(144) %0, i64 noundef %1, ptr noundef %2, i64 noundef %3, ptr noundef %4, ptr noundef %5, ptr noundef %6) unnamed_addr #1 align 2 personality ptr @__gxx_personality_v0 {
  %8 = alloca ptr, align 8
  %9 = alloca i64, align 8
  %10 = alloca ptr, align 8
  %11 = alloca i64, align 8
  %12 = alloca ptr, align 8
  %13 = alloca ptr, align 8
  %14 = alloca ptr, align 8
  %15 = alloca ptr, align 8
  %16 = alloca %"class.std::__cxx11::basic_string", align 8
  %17 = alloca i32, align 4
  %18 = alloca ptr, align 8
  %19 = alloca i32, align 4
  %20 = alloca %"class.std::__cxx11::basic_string", align 8
  %21 = alloca i32, align 4
  %22 = alloca %"class.std::__cxx11::basic_string", align 8
  %23 = alloca i32, align 4
  store ptr %0, ptr %8, align 8
  store i64 %1, ptr %9, align 8
  store ptr %2, ptr %10, align 8
  store i64 %3, ptr %11, align 8
  store ptr %4, ptr %12, align 8
  store ptr %5, ptr %13, align 8
  store ptr %6, ptr %14, align 8
  %24 = load ptr, ptr %8, align 8
  %25 = load ptr, ptr %14, align 8
  %26 = icmp ne ptr %25, null
  br i1 %26, label %27, label %31

27:                                               ; preds = %7
  %28 = load ptr, ptr %14, align 8
  %29 = getelementptr inbounds %"struct.faiss::SearchParameters", ptr %28, i32 0, i32 1
  %30 = load ptr, ptr %29, align 8
  br label %32

31:                                               ; preds = %7
  br label %32

32:                                               ; preds = %31, %27
  %33 = phi ptr [ %30, %27 ], [ null, %31 ]
  store ptr %33, ptr %15, align 8
  br label %34

34:                                               ; preds = %32
  %35 = load i64, ptr %11, align 8
  %36 = icmp sgt i64 %35, 0
  br i1 %36, label %60, label %37

37:                                               ; preds = %34
  br label %38

38:                                               ; preds = %37
  call void @_ZNSt7__cxx1112basic_stringIcSt11char_traitsIcESaIcEEC1Ev(ptr noundef nonnull align 8 dereferenceable(32) %16) #8
  %39 = call i32 (ptr, i64, ptr, ...) @snprintf(ptr noundef null, i64 noundef 0, ptr noundef @.str, ptr noundef @.str.1) #8
  store i32 %39, ptr %17, align 4
  %40 = load i32, ptr %17, align 4
  %41 = add nsw i32 %40, 1
  %42 = sext i32 %41 to i64
  invoke void @_ZNSt7__cxx1112basic_stringIcSt11char_traitsIcESaIcEE6resizeEm(ptr noundef nonnull align 8 dereferenceable(32) %16, i64 noundef %42)
          to label %43 unwind label %50

43:                                               ; preds = %38
  %44 = invoke noundef nonnull align 1 dereferenceable(1) ptr @_ZNSt7__cxx1112basic_stringIcSt11char_traitsIcESaIcEEixEm(ptr noundef nonnull align 8 dereferenceable(32) %16, i64 noundef 0)
          to label %45 unwind label %50

45:                                               ; preds = %43
  %46 = call noundef i64 @_ZNKSt7__cxx1112basic_stringIcSt11char_traitsIcESaIcEE4sizeEv(ptr noundef nonnull align 8 dereferenceable(32) %16) #8
  %47 = call i32 (ptr, i64, ptr, ...) @snprintf(ptr noundef %44, i64 noundef %46, ptr noundef @.str, ptr noundef @.str.1) #8
  %48 = call ptr @__cxa_allocate_exception(i64 40) #8
  invoke void @_ZN5faiss14FaissExceptionC1ERKNSt7__cxx1112basic_stringIcSt11char_traitsIcESaIcEEEPKcSA_i(ptr noundef nonnull align 8 dereferenceable(40) %48, ptr noundef nonnull align 8 dereferenceable(32) %16, ptr noundef @__PRETTY_FUNCTION__._ZNK5faiss20IndexScalarQuantizer6searchElPKflPfPlPKNS_16SearchParametersE, ptr noundef @.str.2, i32 noundef 56)
          to label %49 unwind label %54

49:                                               ; preds = %45
  invoke void @__cxa_throw(ptr %48, ptr @_ZTIN5faiss14FaissExceptionE, ptr @_ZN5faiss14FaissExceptionD2Ev) #15
          to label %129 unwind label %50

50:                                               ; preds = %49, %43, %38
  %51 = landingpad { ptr, i32 }
          cleanup
  %52 = extractvalue { ptr, i32 } %51, 0
  store ptr %52, ptr %18, align 8
  %53 = extractvalue { ptr, i32 } %51, 1
  store i32 %53, ptr %19, align 4
  br label %58

54:                                               ; preds = %45
  %55 = landingpad { ptr, i32 }
          cleanup
  %56 = extractvalue { ptr, i32 } %55, 0
  store ptr %56, ptr %18, align 8
  %57 = extractvalue { ptr, i32 } %55, 1
  store i32 %57, ptr %19, align 4
  call void @__cxa_free_exception(ptr %48) #8
  br label %58

58:                                               ; preds = %54, %50
  call void @_ZNSt7__cxx1112basic_stringIcSt11char_traitsIcESaIcEED1Ev(ptr noundef nonnull align 8 dereferenceable(32) %16) #8
  br label %124

59:                                               ; No predecessors!
  br label %60

60:                                               ; preds = %59, %34
  br label %61

61:                                               ; preds = %60
  br label %62

62:                                               ; preds = %61
  %63 = getelementptr inbounds %"struct.faiss::Index", ptr %24, i32 0, i32 5
  %64 = load i8, ptr %63, align 1
  %65 = trunc i8 %64 to i1
  br i1 %65, label %89, label %66

66:                                               ; preds = %62
  br label %67

67:                                               ; preds = %66
  call void @_ZNSt7__cxx1112basic_stringIcSt11char_traitsIcESaIcEEC1Ev(ptr noundef nonnull align 8 dereferenceable(32) %20) #8
  %68 = call i32 (ptr, i64, ptr, ...) @snprintf(ptr noundef null, i64 noundef 0, ptr noundef @.str, ptr noundef @.str.3) #8
  store i32 %68, ptr %21, align 4
  %69 = load i32, ptr %21, align 4
  %70 = add nsw i32 %69, 1
  %71 = sext i32 %70 to i64
  invoke void @_ZNSt7__cxx1112basic_stringIcSt11char_traitsIcESaIcEE6resizeEm(ptr noundef nonnull align 8 dereferenceable(32) %20, i64 noundef %71)
          to label %72 unwind label %79

72:                                               ; preds = %67
  %73 = invoke noundef nonnull align 1 dereferenceable(1) ptr @_ZNSt7__cxx1112basic_stringIcSt11char_traitsIcESaIcEEixEm(ptr noundef nonnull align 8 dereferenceable(32) %20, i64 noundef 0)
          to label %74 unwind label %79

74:                                               ; preds = %72
  %75 = call noundef i64 @_ZNKSt7__cxx1112basic_stringIcSt11char_traitsIcESaIcEE4sizeEv(ptr noundef nonnull align 8 dereferenceable(32) %20) #8
  %76 = call i32 (ptr, i64, ptr, ...) @snprintf(ptr noundef %73, i64 noundef %75, ptr noundef @.str, ptr noundef @.str.3) #8
  %77 = call ptr @__cxa_allocate_exception(i64 40) #8
  invoke void @_ZN5faiss14FaissExceptionC1ERKNSt7__cxx1112basic_stringIcSt11char_traitsIcESaIcEEEPKcSA_i(ptr noundef nonnull align 8 dereferenceable(40) %77, ptr noundef nonnull align 8 dereferenceable(32) %20, ptr noundef @__PRETTY_FUNCTION__._ZNK5faiss20IndexScalarQuantizer6searchElPKflPfPlPKNS_16SearchParametersE, ptr noundef @.str.2, i32 noundef 57)
          to label %78 unwind label %83

78:                                               ; preds = %74
  invoke void @__cxa_throw(ptr %77, ptr @_ZTIN5faiss14FaissExceptionE, ptr @_ZN5faiss14FaissExceptionD2Ev) #15
          to label %129 unwind label %79

79:                                               ; preds = %78, %72, %67
  %80 = landingpad { ptr, i32 }
          cleanup
  %81 = extractvalue { ptr, i32 } %80, 0
  store ptr %81, ptr %18, align 8
  %82 = extractvalue { ptr, i32 } %80, 1
  store i32 %82, ptr %19, align 4
  br label %87

83:                                               ; preds = %74
  %84 = landingpad { ptr, i32 }
          cleanup
  %85 = extractvalue { ptr, i32 } %84, 0
  store ptr %85, ptr %18, align 8
  %86 = extractvalue { ptr, i32 } %84, 1
  store i32 %86, ptr %19, align 4
  call void @__cxa_free_exception(ptr %77) #8
  br label %87

87:                                               ; preds = %83, %79
  call void @_ZNSt7__cxx1112basic_stringIcSt11char_traitsIcESaIcEED1Ev(ptr noundef nonnull align 8 dereferenceable(32) %20) #8
  br label %124

88:                                               ; No predecessors!
  br label %89

89:                                               ; preds = %88, %62
  br label %90

90:                                               ; preds = %89
  br label %91

91:                                               ; preds = %90
  %92 = getelementptr inbounds %"struct.faiss::Index", ptr %24, i32 0, i32 7
  %93 = load i32, ptr %92, align 4
  %94 = icmp eq i32 %93, 1
  br i1 %94, label %122, label %95

95:                                               ; preds = %91
  %96 = getelementptr inbounds %"struct.faiss::Index", ptr %24, i32 0, i32 7
  %97 = load i32, ptr %96, align 4
  %98 = icmp eq i32 %97, 0
  br i1 %98, label %122, label %99

99:                                               ; preds = %95
  br label %100

100:                                              ; preds = %99
  call void @_ZNSt7__cxx1112basic_stringIcSt11char_traitsIcESaIcEEC1Ev(ptr noundef nonnull align 8 dereferenceable(32) %22) #8
  %101 = call i32 (ptr, i64, ptr, ...) @snprintf(ptr noundef null, i64 noundef 0, ptr noundef @.str, ptr noundef @.str.4) #8
  store i32 %101, ptr %23, align 4
  %102 = load i32, ptr %23, align 4
  %103 = add nsw i32 %102, 1
  %104 = sext i32 %103 to i64
  invoke void @_ZNSt7__cxx1112basic_stringIcSt11char_traitsIcESaIcEE6resizeEm(ptr noundef nonnull align 8 dereferenceable(32) %22, i64 noundef %104)
          to label %105 unwind label %112

105:                                              ; preds = %100
  %106 = invoke noundef nonnull align 1 dereferenceable(1) ptr @_ZNSt7__cxx1112basic_stringIcSt11char_traitsIcESaIcEEixEm(ptr noundef nonnull align 8 dereferenceable(32) %22, i64 noundef 0)
          to label %107 unwind label %112

107:                                              ; preds = %105
  %108 = call noundef i64 @_ZNKSt7__cxx1112basic_stringIcSt11char_traitsIcESaIcEE4sizeEv(ptr noundef nonnull align 8 dereferenceable(32) %22) #8
  %109 = call i32 (ptr, i64, ptr, ...) @snprintf(ptr noundef %106, i64 noundef %108, ptr noundef @.str, ptr noundef @.str.4) #8
  %110 = call ptr @__cxa_allocate_exception(i64 40) #8
  invoke void @_ZN5faiss14FaissExceptionC1ERKNSt7__cxx1112basic_stringIcSt11char_traitsIcESaIcEEEPKcSA_i(ptr noundef nonnull align 8 dereferenceable(40) %110, ptr noundef nonnull align 8 dereferenceable(32) %22, ptr noundef @__PRETTY_FUNCTION__._ZNK5faiss20IndexScalarQuantizer6searchElPKflPfPlPKNS_16SearchParametersE, ptr noundef @.str.2, i32 noundef 59)
          to label %111 unwind label %116

111:                                              ; preds = %107
  invoke void @__cxa_throw(ptr %110, ptr @_ZTIN5faiss14FaissExceptionE, ptr @_ZN5faiss14FaissExceptionD2Ev) #15
          to label %129 unwind label %112

112:                                              ; preds = %111, %105, %100
  %113 = landingpad { ptr, i32 }
          cleanup
  %114 = extractvalue { ptr, i32 } %113, 0
  store ptr %114, ptr %18, align 8
  %115 = extractvalue { ptr, i32 } %113, 1
  store i32 %115, ptr %19, align 4
  br label %120

116:                                              ; preds = %107
  %117 = landingpad { ptr, i32 }
          cleanup
  %118 = extractvalue { ptr, i32 } %117, 0
  store ptr %118, ptr %18, align 8
  %119 = extractvalue { ptr, i32 } %117, 1
  store i32 %119, ptr %19, align 4
  call void @__cxa_free_exception(ptr %110) #8
  br label %120

120:                                              ; preds = %116, %112
  call void @_ZNSt7__cxx1112basic_stringIcSt11char_traitsIcESaIcEED1Ev(ptr noundef nonnull align 8 dereferenceable(32) %22) #8
  br label %124

121:                                              ; No predecessors!
  br label %122

122:                                              ; preds = %121, %95, %91
  br label %123

123:                                              ; preds = %122
  call void (ptr, i32, ptr, ...) @__kmpc_fork_call(ptr @3, i32 7, ptr @_ZNK5faiss20IndexScalarQuantizer6searchElPKflPfPlPKNS_16SearchParametersE.omp_outlined, ptr %24, ptr %15, ptr %9, ptr %12, ptr %11, ptr %13, ptr %10)
  ret void

124:                                              ; preds = %120, %87, %58
  %125 = load ptr, ptr %18, align 8
  %126 = load i32, ptr %19, align 4
  %127 = insertvalue { ptr, i32 } poison, ptr %125, 0
  %128 = insertvalue { ptr, i32 } %127, i32 %126, 1
  resume { ptr, i32 } %128

129:                                              ; preds = %111, %78, %49
  unreachable
}