; Function Attrs: mustprogress uwtable
define void @_ZNK5faiss20IndexScalarQuantizer6searchElPKflPfPlPKNS_16SearchParametersE(ptr noundef nonnull align 8 dereferenceable(144) %0, i64 noundef %1, ptr noundef %2, i64 noundef %3, ptr noundef %4, ptr noundef %5, ptr noundef readonly %6) unnamed_addr #1 align 2 personality ptr @__gxx_personality_v0 {
  %8 = alloca i64, align 8
  %9 = alloca ptr, align 8
  %10 = alloca i64, align 8
  %11 = alloca ptr, align 8
  %12 = alloca ptr, align 8
  %13 = alloca ptr, align 8
  %14 = alloca %"class.std::__cxx11::basic_string", align 8
  %15 = alloca %"class.std::__cxx11::basic_string", align 8
  %16 = alloca %"class.std::__cxx11::basic_string", align 8
  store i64 %1, ptr %8, align 8
  store ptr %2, ptr %9, align 8
  store i64 %3, ptr %10, align 8
  store ptr %4, ptr %11, align 8
  store ptr %5, ptr %12, align 8
  %.not = icmp eq ptr %6, null
  br i1 %.not, label %20, label %17

17:                                               ; preds = %7
  %18 = getelementptr inbounds i8, ptr %6, i64 8
  %19 = load ptr, ptr %18, align 8
  br label %20

20:                                               ; preds = %7, %17
  %21 = phi ptr [ %19, %17 ], [ null, %7 ]
  store ptr %21, ptr %13, align 8
  %22 = icmp sgt i64 %3, 0
  br i1 %22, label %38, label %23

23:                                               ; preds = %20
  call void @_ZNSt7__cxx1112basic_stringIcSt11char_traitsIcESaIcEEC1Ev(ptr noundef nonnull align 8 dereferenceable(32) %14) #10
  %24 = call i32 (ptr, i64, ptr, ...) @snprintf(ptr noundef null, i64 noundef 0, ptr noundef nonnull @.str, ptr noundef nonnull @.str.1) #10
  %25 = add nsw i32 %24, 1
  %26 = sext i32 %25 to i64
  invoke void @_ZNSt7__cxx1112basic_stringIcSt11char_traitsIcESaIcEE6resizeEm(ptr noundef nonnull align 8 dereferenceable(32) %14, i64 noundef %26)
          to label %27 unwind label %34

27:                                               ; preds = %23
  %28 = invoke noundef nonnull align 1 dereferenceable(1) ptr @_ZNSt7__cxx1112basic_stringIcSt11char_traitsIcESaIcEEixEm(ptr noundef nonnull align 8 dereferenceable(32) %14, i64 noundef 0)
          to label %29 unwind label %34

29:                                               ; preds = %27
  %30 = call noundef i64 @_ZNKSt7__cxx1112basic_stringIcSt11char_traitsIcESaIcEE4sizeEv(ptr noundef nonnull align 8 dereferenceable(32) %14) #10
  %31 = call i32 (ptr, i64, ptr, ...) @snprintf(ptr noundef nonnull %28, i64 noundef %30, ptr noundef nonnull @.str, ptr noundef nonnull @.str.1) #10
  %32 = call ptr @__cxa_allocate_exception(i64 40) #10
  invoke void @_ZN5faiss14FaissExceptionC1ERKNSt7__cxx1112basic_stringIcSt11char_traitsIcESaIcEEEPKcSA_i(ptr noundef nonnull align 8 dereferenceable(40) %32, ptr noundef nonnull align 8 dereferenceable(32) %14, ptr noundef nonnull @__PRETTY_FUNCTION__._ZNK5faiss20IndexScalarQuantizer6searchElPKflPfPlPKNS_16SearchParametersE, ptr noundef nonnull @.str.2, i32 noundef 56)
          to label %33 unwind label %36

33:                                               ; preds = %29
  invoke void @__cxa_throw(ptr nonnull %32, ptr nonnull @_ZTIN5faiss14FaissExceptionE, ptr nonnull @_ZN5faiss14FaissExceptionD2Ev) #18
          to label %77 unwind label %34

34:                                               ; preds = %33, %27, %23
  %35 = landingpad { ptr, i32 }
          cleanup
  br label %76

36:                                               ; preds = %29
  %37 = landingpad { ptr, i32 }
          cleanup
  call void @__cxa_free_exception(ptr %32) #10
  br label %76

38:                                               ; preds = %20
  %39 = getelementptr inbounds i8, ptr %0, i64 25
  %40 = load i8, ptr %39, align 1
  %41 = and i8 %40, 1
  %.not14 = icmp eq i8 %41, 0
  br i1 %.not14, label %42, label %57

42:                                               ; preds = %38
  call void @_ZNSt7__cxx1112basic_stringIcSt11char_traitsIcESaIcEEC1Ev(ptr noundef nonnull align 8 dereferenceable(32) %15) #10
  %43 = call i32 (ptr, i64, ptr, ...) @snprintf(ptr noundef null, i64 noundef 0, ptr noundef nonnull @.str, ptr noundef nonnull @.str.3) #10
  %44 = add nsw i32 %43, 1
  %45 = sext i32 %44 to i64
  invoke void @_ZNSt7__cxx1112basic_stringIcSt11char_traitsIcESaIcEE6resizeEm(ptr noundef nonnull align 8 dereferenceable(32) %15, i64 noundef %45)
          to label %46 unwind label %53

46:                                               ; preds = %42
  %47 = invoke noundef nonnull align 1 dereferenceable(1) ptr @_ZNSt7__cxx1112basic_stringIcSt11char_traitsIcESaIcEEixEm(ptr noundef nonnull align 8 dereferenceable(32) %15, i64 noundef 0)
          to label %48 unwind label %53

48:                                               ; preds = %46
  %49 = call noundef i64 @_ZNKSt7__cxx1112basic_stringIcSt11char_traitsIcESaIcEE4sizeEv(ptr noundef nonnull align 8 dereferenceable(32) %15) #10
  %50 = call i32 (ptr, i64, ptr, ...) @snprintf(ptr noundef nonnull %47, i64 noundef %49, ptr noundef nonnull @.str, ptr noundef nonnull @.str.3) #10
  %51 = call ptr @__cxa_allocate_exception(i64 40) #10
  invoke void @_ZN5faiss14FaissExceptionC1ERKNSt7__cxx1112basic_stringIcSt11char_traitsIcESaIcEEEPKcSA_i(ptr noundef nonnull align 8 dereferenceable(40) %51, ptr noundef nonnull align 8 dereferenceable(32) %15, ptr noundef nonnull @__PRETTY_FUNCTION__._ZNK5faiss20IndexScalarQuantizer6searchElPKflPfPlPKNS_16SearchParametersE, ptr noundef nonnull @.str.2, i32 noundef 57)
          to label %52 unwind label %55

52:                                               ; preds = %48
  invoke void @__cxa_throw(ptr nonnull %51, ptr nonnull @_ZTIN5faiss14FaissExceptionE, ptr nonnull @_ZN5faiss14FaissExceptionD2Ev) #18
          to label %77 unwind label %53

53:                                               ; preds = %52, %46, %42
  %54 = landingpad { ptr, i32 }
          cleanup
  br label %76

55:                                               ; preds = %48
  %56 = landingpad { ptr, i32 }
          cleanup
  call void @__cxa_free_exception(ptr %51) #10
  br label %76

57:                                               ; preds = %38
  %58 = getelementptr inbounds i8, ptr %0, i64 28
  %59 = load i32, ptr %58, align 4
  %switch = icmp ult i32 %59, 2
  br i1 %switch, label %75, label %60

60:                                               ; preds = %57
  call void @_ZNSt7__cxx1112basic_stringIcSt11char_traitsIcESaIcEEC1Ev(ptr noundef nonnull align 8 dereferenceable(32) %16) #10
  %61 = call i32 (ptr, i64, ptr, ...) @snprintf(ptr noundef null, i64 noundef 0, ptr noundef nonnull @.str, ptr noundef nonnull @.str.4) #10
  %62 = add nsw i32 %61, 1
  %63 = sext i32 %62 to i64
  invoke void @_ZNSt7__cxx1112basic_stringIcSt11char_traitsIcESaIcEE6resizeEm(ptr noundef nonnull align 8 dereferenceable(32) %16, i64 noundef %63)
          to label %64 unwind label %71

64:                                               ; preds = %60
  %65 = invoke noundef nonnull align 1 dereferenceable(1) ptr @_ZNSt7__cxx1112basic_stringIcSt11char_traitsIcESaIcEEixEm(ptr noundef nonnull align 8 dereferenceable(32) %16, i64 noundef 0)
          to label %66 unwind label %71

66:                                               ; preds = %64
  %67 = call noundef i64 @_ZNKSt7__cxx1112basic_stringIcSt11char_traitsIcESaIcEE4sizeEv(ptr noundef nonnull align 8 dereferenceable(32) %16) #10
  %68 = call i32 (ptr, i64, ptr, ...) @snprintf(ptr noundef nonnull %65, i64 noundef %67, ptr noundef nonnull @.str, ptr noundef nonnull @.str.4) #10
  %69 = call ptr @__cxa_allocate_exception(i64 40) #10
  invoke void @_ZN5faiss14FaissExceptionC1ERKNSt7__cxx1112basic_stringIcSt11char_traitsIcESaIcEEEPKcSA_i(ptr noundef nonnull align 8 dereferenceable(40) %69, ptr noundef nonnull align 8 dereferenceable(32) %16, ptr noundef nonnull @__PRETTY_FUNCTION__._ZNK5faiss20IndexScalarQuantizer6searchElPKflPfPlPKNS_16SearchParametersE, ptr noundef nonnull @.str.2, i32 noundef 59)
          to label %70 unwind label %73

70:                                               ; preds = %66
  invoke void @__cxa_throw(ptr nonnull %69, ptr nonnull @_ZTIN5faiss14FaissExceptionE, ptr nonnull @_ZN5faiss14FaissExceptionD2Ev) #18
          to label %77 unwind label %71

71:                                               ; preds = %70, %64, %60
  %72 = landingpad { ptr, i32 }
          cleanup
  br label %76

73:                                               ; preds = %66
  %74 = landingpad { ptr, i32 }
          cleanup
  call void @__cxa_free_exception(ptr %69) #10
  br label %76

75:                                               ; preds = %57
  call void (ptr, i32, ptr, ...) @__kmpc_fork_call(ptr nonnull @3, i32 7, ptr nonnull @_ZNK5faiss20IndexScalarQuantizer6searchElPKflPfPlPKNS_16SearchParametersE.omp_outlined, ptr nonnull %0, ptr nonnull %13, ptr nonnull %8, ptr nonnull %11, ptr nonnull %10, ptr nonnull %12, ptr nonnull %9)
  ret void

76:                                               ; preds = %71, %73, %53, %55, %34, %36
  %.sink = phi ptr [ %14, %36 ], [ %14, %34 ], [ %15, %55 ], [ %15, %53 ], [ %16, %73 ], [ %16, %71 ]
  %.pn17.pn = phi { ptr, i32 } [ %37, %36 ], [ %35, %34 ], [ %56, %55 ], [ %54, %53 ], [ %74, %73 ], [ %72, %71 ]
  call void @_ZNSt7__cxx1112basic_stringIcSt11char_traitsIcESaIcEED1Ev(ptr noundef nonnull align 8 dereferenceable(32) %.sink) #10
  resume { ptr, i32 } %.pn17.pn

77:                                               ; preds = %70, %52, %33
  unreachable
}